; Function Attrs: nounwind uwtable
define dso_local void @rate_limit_shutdown() local_unnamed_addr #0 {
  %1 = tail call i32 @pthread_mutex_lock(ptr noundef nonnull @rate_limit_mutex) #7
  %.not = icmp eq i32 %1, 0
  br i1 %.not, label %4, label %2

2:                                                ; preds = %0
  %3 = tail call ptr @__errno_location() #8
  store i32 %1, ptr %3, align 4
  tail call void (ptr, ...) @fatal_abort(ptr noundef nonnull @.str.9, ptr noundef nonnull @__func__.rate_limit_shutdown) #9
  unreachable

4:                                                ; preds = %0
  store i1 false, ptr @rate_limit_enabled, align 1
  tail call void @slurm_xfree(ptr noundef nonnull @user_buckets) #7
  %5 = tail call i32 @pthread_mutex_unlock(ptr noundef nonnull @rate_limit_mutex) #7
  %.not5 = icmp eq i32 %5, 0
  br i1 %.not5, label %8, label %6

6:                                                ; preds = %4
  %7 = tail call ptr @__errno_location() #8
  store i32 %5, ptr %7, align 4
  tail call void (ptr, ...) @fatal_abort(ptr noundef nonnull @.str.10, ptr noundef nonnull @__func__.rate_limit_shutdown) #9
  unreachable

8:                                                ; preds = %4
  ret void
}